target datalayout = "e-m:e-p270:32:32-p271:32:32-p272:64:64-i64:64-i128:128-f80:128-n8:16:32:64-S128"
target triple = "x86_64-unknown-linux-gnu"

%struct.ssl_st = type { i32, i16, i16, ptr, ptr, ptr, ptr, ptr, i32, i32, ptr, ptr, i32, i32, ptr, ptr, ptr, ptr, ptr, ptr, ptr, ptr, i32, i32, [32 x i8], ptr, ptr, ptr, ptr, ptr, ptr, ptr, i64, %struct.crypto_ex_data_st, ptr, i32, i32, i32, i32, i16, ptr, i32, i64, ptr, ptr, ptr, ptr, ptr, ptr, i32, i32, ptr, ptr, i8, i8, i32 }
%struct.crypto_ex_data_st = type { ptr }

@.str = private unnamed_addr constant [116 x i8] c"generated/home/dtcxzyw/WorkSpace/Projects/compilers/llvm-opt-benchmark/bench/libquic/libquic/boringssl/ssl/s3_lib.c\00", align 1

; Function Attrs: nounwind uwtable
define hidden i32 @SSL_set_tlsext_host_name(ptr noundef %ssl, ptr noundef %name) #0 {
entry:
  %retval = alloca i32, align 4
  %ssl.addr = alloca ptr, align 8
  %name.addr = alloca ptr, align 8
  %len = alloca i64, align 8
  store ptr %ssl, ptr %ssl.addr, align 8
  store ptr %name, ptr %name.addr, align 8
  %0 = load ptr, ptr %ssl.addr, align 8
  %tlsext_hostname = getelementptr inbounds %struct.ssl_st, ptr %0, i32 0, i32 40
  %1 = load ptr, ptr %tlsext_hostname, align 8
  call void @free(ptr noundef %1) #8
  %2 = load ptr, ptr %ssl.addr, align 8
  %tlsext_hostname1 = getelementptr inbounds %struct.ssl_st, ptr %2, i32 0, i32 40
  store ptr null, ptr %tlsext_hostname1, align 8
  %3 = load ptr, ptr %name.addr, align 8
  %cmp = icmp eq ptr %3, null
  br i1 %cmp, label %if.then, label %if.end

if.then:                                          ; preds = %entry
  store i32 1, ptr %retval, align 4
  br label %return

if.end:                                           ; preds = %entry
  %4 = load ptr, ptr %name.addr, align 8
  %call = call i64 @strlen(ptr noundef %4) #9
  store i64 %call, ptr %len, align 8
  %5 = load i64, ptr %len, align 8
  %cmp2 = icmp eq i64 %5, 0
  br i1 %cmp2, label %if.then4, label %lor.lhs.false

lor.lhs.false:                                    ; preds = %if.end
  %6 = load i64, ptr %len, align 8
  %cmp3 = icmp ugt i64 %6, 255
  br i1 %cmp3, label %if.then4, label %if.end5

if.then4:                                         ; preds = %lor.lhs.false, %if.end
  call void @ERR_put_error(i32 noundef 16, i32 noundef 0, i32 noundef 213, ptr noundef @.str, i32 noundef 364)
  store i32 0, ptr %retval, align 4
  br label %return

if.end5:                                          ; preds = %lor.lhs.false
  %7 = load ptr, ptr %name.addr, align 8
  %call6 = call ptr @BUF_strdup(ptr noundef %7)
  %8 = load ptr, ptr %ssl.addr, align 8
  %tlsext_hostname7 = getelementptr inbounds %struct.ssl_st, ptr %8, i32 0, i32 40
  store ptr %call6, ptr %tlsext_hostname7, align 8
  %9 = load ptr, ptr %ssl.addr, align 8
  %tlsext_hostname8 = getelementptr inbounds %struct.ssl_st, ptr %9, i32 0, i32 40
  %10 = load ptr, ptr %tlsext_hostname8, align 8
  %cmp9 = icmp eq ptr %10, null
  br i1 %cmp9, label %if.then10, label %if.end11

if.then10:                                        ; preds = %if.end5
  call void @ERR_put_error(i32 noundef 16, i32 noundef 0, i32 noundef 65, ptr noundef @.str, i32 noundef 369)
  store i32 0, ptr %retval, align 4
  br label %return

if.end11:                                         ; preds = %if.end5
  store i32 1, ptr %retval, align 4
  br label %return

return:                                           ; preds = %if.end11, %if.then10, %if.then4, %if.then
  %11 = load i32, ptr %retval, align 4
  ret i32 %11
}