; Function Attrs: nounwind uwtable
define hidden range(i32 0, 2) i32 @SSL_set_tlsext_host_name(ptr noundef captures(none) %ssl, ptr noundef %name) local_unnamed_addr #1 {
entry:
  %tlsext_hostname = getelementptr inbounds nuw i8, ptr %ssl, i64 288
  %0 = load ptr, ptr %tlsext_hostname, align 8
  tail call void @free(ptr noundef %0) #14
  store ptr null, ptr %tlsext_hostname, align 8
  %cmp = icmp eq ptr %name, null
  br i1 %cmp, label %return, label %if.end

if.end:                                           ; preds = %entry
  %call = tail call i64 @strlen(ptr noundef nonnull dereferenceable(1) %name) #15
  %1 = add i64 %call, -256
  %or.cond = icmp ult i64 %1, -255
  br i1 %or.cond, label %if.then4, label %if.end5

if.then4:                                         ; preds = %if.end
  tail call void @ERR_put_error(i32 noundef 16, i32 noundef 0, i32 noundef 213, ptr noundef nonnull @.str, i32 noundef 364) #14
  br label %return

if.end5:                                          ; preds = %if.end
  %call6 = tail call ptr @BUF_strdup(ptr noundef nonnull %name) #14
  store ptr %call6, ptr %tlsext_hostname, align 8
  %cmp9 = icmp eq ptr %call6, null
  br i1 %cmp9, label %if.then10, label %return

if.then10:                                        ; preds = %if.end5
  tail call void @ERR_put_error(i32 noundef 16, i32 noundef 0, i32 noundef 65, ptr noundef nonnull @.str, i32 noundef 369) #14
  br label %return

return:                                           ; preds = %if.end5, %entry, %if.then10, %if.then4
  %retval.0 = phi i32 [ 0, %if.then4 ], [ 0, %if.then10 ], [ 1, %entry ], [ 1, %if.end5 ]
  ret i32 %retval.0
}